#include <math.h>
#include <stdio.h>
#include <stdlib.h>
#include <string.h>



struct student
{
	int num,y,b,he;
}a[100003];

void main()
{
	int n,i,j,he,k;
	scanf("%d",&n);

	for (i=1;i<=n;i++)
	{
		scanf("%d %d %d",&a[i].num,&a[i].y,&a[i].b);
		a[i].he=a[i].y+a[i].b;
	};

	for (i=1;i<=2;i++)
	{
		k=i;
		for (j=i+1;j<=n;j++)
			if (a[j].he>a[k].he) k=j; 
		printf("%d %d",a[k].num,a[k].he);
		printf("\n");
		a[k].he=0;
	}
			k=1;
		for (j=i+1;j<=n;j++)
			if (a[j].he>a[k].he) k=j; 
		printf("%d %d",a[k].num,a[k].he);
		a[k].he=0;
}