; ModuleID = '14/1462.c'
source_filename = "14/1462.c"
target datalayout = "e-m:e-p270:32:32-p271:32:32-p272:64:64-i64:64-f80:128-n8:16:32:64-S128"
target triple = "x86_64-pc-linux-gnu"

%struct.student = type { i32, i32, i32, i32 }

@.str = private unnamed_addr constant [3 x i8] c"%d\00", align 1
@.str.1 = private unnamed_addr constant [9 x i8] c"%d %d %d\00", align 1
@a = common dso_local global [100003 x %struct.student] zeroinitializer, align 16
@.str.2 = private unnamed_addr constant [6 x i8] c"%d %d\00", align 1
@.str.3 = private unnamed_addr constant [2 x i8] c"\0A\00", align 1

; Function Attrs: noinline nounwind uwtable
define dso_local void @main() #0 {
  %1 = alloca i32, align 4
  %2 = alloca i32, align 4
  %3 = alloca i32, align 4
  %4 = alloca i32, align 4
  %5 = alloca i32, align 4
  %6 = call i32 (i8*, ...) @__isoc99_scanf(i8* getelementptr inbounds ([3 x i8], [3 x i8]* @.str, i64 0, i64 0), i32* %1)
  store i32 1, i32* %2, align 4
  br label %7

7:                                                ; preds = %40, %0
  %8 = load i32, i32* %2, align 4
  %9 = load i32, i32* %1, align 4
  %10 = icmp sle i32 %8, %9
  br i1 %10, label %11, label %43

11:                                               ; preds = %7
  %12 = load i32, i32* %2, align 4
  %13 = sext i32 %12 to i64
  %14 = getelementptr inbounds [100003 x %struct.student], [100003 x %struct.student]* @a, i64 0, i64 %13
  %15 = getelementptr inbounds %struct.student, %struct.student* %14, i32 0, i32 0
  %16 = load i32, i32* %2, align 4
  %17 = sext i32 %16 to i64
  %18 = getelementptr inbounds [100003 x %struct.student], [100003 x %struct.student]* @a, i64 0, i64 %17
  %19 = getelementptr inbounds %struct.student, %struct.student* %18, i32 0, i32 1
  %20 = load i32, i32* %2, align 4
  %21 = sext i32 %20 to i64
  %22 = getelementptr inbounds [100003 x %struct.student], [100003 x %struct.student]* @a, i64 0, i64 %21
  %23 = getelementptr inbounds %struct.student, %struct.student* %22, i32 0, i32 2
  %24 = call i32 (i8*, ...) @__isoc99_scanf(i8* getelementptr inbounds ([9 x i8], [9 x i8]* @.str.1, i64 0, i64 0), i32* %15, i32* %19, i32* %23)
  %25 = load i32, i32* %2, align 4
  %26 = sext i32 %25 to i64
  %27 = getelementptr inbounds [100003 x %struct.student], [100003 x %struct.student]* @a, i64 0, i64 %26
  %28 = getelementptr inbounds %struct.student, %struct.student* %27, i32 0, i32 1
  %29 = load i32, i32* %28, align 4
  %30 = load i32, i32* %2, align 4
  %31 = sext i32 %30 to i64
  %32 = getelementptr inbounds [100003 x %struct.student], [100003 x %struct.student]* @a, i64 0, i64 %31
  %33 = getelementptr inbounds %struct.student, %struct.student* %32, i32 0, i32 2
  %34 = load i32, i32* %33, align 8
  %35 = add nsw i32 %29, %34
  %36 = load i32, i32* %2, align 4
  %37 = sext i32 %36 to i64
  %38 = getelementptr inbounds [100003 x %struct.student], [100003 x %struct.student]* @a, i64 0, i64 %37
  %39 = getelementptr inbounds %struct.student, %struct.student* %38, i32 0, i32 3
  store i32 %35, i32* %39, align 4
  br label %40

40:                                               ; preds = %11
  %41 = load i32, i32* %2, align 4
  %42 = add nsw i32 %41, 1
  store i32 %42, i32* %2, align 4
  br label %7

43:                                               ; preds = %7
  store i32 1, i32* %2, align 4
  br label %44

44:                                               ; preds = %90, %43
  %45 = load i32, i32* %2, align 4
  %46 = icmp sle i32 %45, 2
  br i1 %46, label %47, label %93

47:                                               ; preds = %44
  %48 = load i32, i32* %2, align 4
  store i32 %48, i32* %5, align 4
  %49 = load i32, i32* %2, align 4
  %50 = add nsw i32 %49, 1
  store i32 %50, i32* %3, align 4
  br label %51

51:                                               ; preds = %70, %47
  %52 = load i32, i32* %3, align 4
  %53 = load i32, i32* %1, align 4
  %54 = icmp sle i32 %52, %53
  br i1 %54, label %55, label %73

55:                                               ; preds = %51
  %56 = load i32, i32* %3, align 4
  %57 = sext i32 %56 to i64
  %58 = getelementptr inbounds [100003 x %struct.student], [100003 x %struct.student]* @a, i64 0, i64 %57
  %59 = getelementptr inbounds %struct.student, %struct.student* %58, i32 0, i32 3
  %60 = load i32, i32* %59, align 4
  %61 = load i32, i32* %5, align 4
  %62 = sext i32 %61 to i64
  %63 = getelementptr inbounds [100003 x %struct.student], [100003 x %struct.student]* @a, i64 0, i64 %62
  %64 = getelementptr inbounds %struct.student, %struct.student* %63, i32 0, i32 3
  %65 = load i32, i32* %64, align 4
  %66 = icmp sgt i32 %60, %65
  br i1 %66, label %67, label %69

67:                                               ; preds = %55
  %68 = load i32, i32* %3, align 4
  store i32 %68, i32* %5, align 4
  br label %69

69:                                               ; preds = %67, %55
  br label %70

70:                                               ; preds = %69
  %71 = load i32, i32* %3, align 4
  %72 = add nsw i32 %71, 1
  store i32 %72, i32* %3, align 4
  br label %51

73:                                               ; preds = %51
  %74 = load i32, i32* %5, align 4
  %75 = sext i32 %74 to i64
  %76 = getelementptr inbounds [100003 x %struct.student], [100003 x %struct.student]* @a, i64 0, i64 %75
  %77 = getelementptr inbounds %struct.student, %struct.student* %76, i32 0, i32 0
  %78 = load i32, i32* %77, align 16
  %79 = load i32, i32* %5, align 4
  %80 = sext i32 %79 to i64
  %81 = getelementptr inbounds [100003 x %struct.student], [100003 x %struct.student]* @a, i64 0, i64 %80
  %82 = getelementptr inbounds %struct.student, %struct.student* %81, i32 0, i32 3
  %83 = load i32, i32* %82, align 4
  %84 = call i32 (i8*, ...) @printf(i8* getelementptr inbounds ([6 x i8], [6 x i8]* @.str.2, i64 0, i64 0), i32 %78, i32 %83)
  %85 = call i32 (i8*, ...) @printf(i8* getelementptr inbounds ([2 x i8], [2 x i8]* @.str.3, i64 0, i64 0))
  %86 = load i32, i32* %5, align 4
  %87 = sext i32 %86 to i64
  %88 = getelementptr inbounds [100003 x %struct.student], [100003 x %struct.student]* @a, i64 0, i64 %87
  %89 = getelementptr inbounds %struct.student, %struct.student* %88, i32 0, i32 3
  store i32 0, i32* %89, align 4
  br label %90

90:                                               ; preds = %73
  %91 = load i32, i32* %2, align 4
  %92 = add nsw i32 %91, 1
  store i32 %92, i32* %2, align 4
  br label %44

93:                                               ; preds = %44
  store i32 1, i32* %5, align 4
  %94 = load i32, i32* %2, align 4
  %95 = add nsw i32 %94, 1
  store i32 %95, i32* %3, align 4
  br label %96

96:                                               ; preds = %115, %93
  %97 = load i32, i32* %3, align 4
  %98 = load i32, i32* %1, align 4
  %99 = icmp sle i32 %97, %98
  br i1 %99, label %100, label %118

100:                                              ; preds = %96
  %101 = load i32, i32* %3, align 4
  %102 = sext i32 %101 to i64
  %103 = getelementptr inbounds [100003 x %struct.student], [100003 x %struct.student]* @a, i64 0, i64 %102
  %104 = getelementptr inbounds %struct.student, %struct.student* %103, i32 0, i32 3
  %105 = load i32, i32* %104, align 4
  %106 = load i32, i32* %5, align 4
  %107 = sext i32 %106 to i64
  %108 = getelementptr inbounds [100003 x %struct.student], [100003 x %struct.student]* @a, i64 0, i64 %107
  %109 = getelementptr inbounds %struct.student, %struct.student* %108, i32 0, i32 3
  %110 = load i32, i32* %109, align 4
  %111 = icmp sgt i32 %105, %110
  br i1 %111, label %112, label %114

112:                                              ; preds = %100
  %113 = load i32, i32* %3, align 4
  store i32 %113, i32* %5, align 4
  br label %114

114:                                              ; preds = %112, %100
  br label %115

115:                                              ; preds = %114
  %116 = load i32, i32* %3, align 4
  %117 = add nsw i32 %116, 1
  store i32 %117, i32* %3, align 4
  br label %96

118:                                              ; preds = %96
  %119 = load i32, i32* %5, align 4
  %120 = sext i32 %119 to i64
  %121 = getelementptr inbounds [100003 x %struct.student], [100003 x %struct.student]* @a, i64 0, i64 %120
  %122 = getelementptr inbounds %struct.student, %struct.student* %121, i32 0, i32 0
  %123 = load i32, i32* %122, align 16
  %124 = load i32, i32* %5, align 4
  %125 = sext i32 %124 to i64
  %126 = getelementptr inbounds [100003 x %struct.student], [100003 x %struct.student]* @a, i64 0, i64 %125
  %127 = getelementptr inbounds %struct.student, %struct.student* %126, i32 0, i32 3
  %128 = load i32, i32* %127, align 4
  %129 = call i32 (i8*, ...) @printf(i8* getelementptr inbounds ([6 x i8], [6 x i8]* @.str.2, i64 0, i64 0), i32 %123, i32 %128)
  %130 = load i32, i32* %5, align 4
  %131 = sext i32 %130 to i64
  %132 = getelementptr inbounds [100003 x %struct.student], [100003 x %struct.student]* @a, i64 0, i64 %131
  %133 = getelementptr inbounds %struct.student, %struct.student* %132, i32 0, i32 3
  store i32 0, i32* %133, align 4
  ret void
}

declare dso_local i32 @__isoc99_scanf(i8*, ...) #1

declare dso_local i32 @printf(i8*, ...) #1


!llvm.module.flags = !{!0}
!llvm.ident = !{!1}

!0 = !{i32 1, !"wchar_size", i32 4}
!1 = !{!"clang version 10.0.0-4ubuntu1 "}
